target datalayout = "e-m:e-p270:32:32-p271:32:32-p272:64:64-i64:64-i128:128-f80:128-n8:16:32:64-S128"
target triple = "x86_64-pc-linux-gnu"

%"class.google::protobuf::internal::LogMessage" = type { i32, ptr, i32, %"class.std::__cxx11::basic_string" }
%"class.std::__cxx11::basic_string" = type { %"struct.std::__cxx11::basic_string<char>::_Alloc_hider", i64, %union.anon }
%"struct.std::__cxx11::basic_string<char>::_Alloc_hider" = type { ptr }
%union.anon = type { i64, [8 x i8] }
%"class.google::protobuf::internal::LogFinisher" = type { i8 }
%"class.google::protobuf::strings::ByteSink" = type { ptr }
%"class.google::protobuf::strings::CheckedArrayByteSink" = type <{ %"class.google::protobuf::strings::ByteSink", ptr, i64, i64, i8, [7 x i8] }>

@.str = private unnamed_addr constant [40 x i8] c"third_party/protobuf-lite/bytestream.cc\00", align 1
@.str.4 = private unnamed_addr constant [69 x i8] c"CHECK failed: !(outbuf_ <= bytes && bytes < (outbuf_ + capacity_)): \00", align 1
@.str.5 = private unnamed_addr constant [41 x i8] c"Append() bytes[] overlaps with outbuf_[]\00", align 1

; Function Attrs: mustprogress uwtable
define void @_ZN6google8protobuf7strings20CheckedArrayByteSink6AppendEPKcm(ptr noundef nonnull align 8 dereferenceable(33) %0, ptr noundef %1, i64 noundef %2) unnamed_addr #4 align 2 personality ptr @__gxx_personality_v0 {
  %4 = alloca ptr, align 8
  %5 = alloca ptr, align 8
  %6 = alloca i64, align 8
  %7 = alloca i64, align 8
  %8 = alloca %"class.google::protobuf::internal::LogMessage", align 8
  %9 = alloca i1, align 1
  %10 = alloca ptr, align 8
  %11 = alloca i32, align 4
  %12 = alloca %"class.google::protobuf::internal::LogFinisher", align 1
  store ptr %0, ptr %4, align 8
  store ptr %1, ptr %5, align 8
  store i64 %2, ptr %6, align 8
  %13 = load ptr, ptr %4, align 8
  %14 = getelementptr inbounds %"class.google::protobuf::strings::CheckedArrayByteSink", ptr %13, i32 0, i32 2
  %15 = load i64, ptr %14, align 8
  %16 = getelementptr inbounds %"class.google::protobuf::strings::CheckedArrayByteSink", ptr %13, i32 0, i32 3
  %17 = load i64, ptr %16, align 8
  %18 = sub i64 %15, %17
  store i64 %18, ptr %7, align 8
  %19 = load i64, ptr %6, align 8
  %20 = load i64, ptr %7, align 8
  %21 = icmp ugt i64 %19, %20
  br i1 %21, label %22, label %25

22:                                               ; preds = %3
  %23 = load i64, ptr %7, align 8
  store i64 %23, ptr %6, align 8
  %24 = getelementptr inbounds %"class.google::protobuf::strings::CheckedArrayByteSink", ptr %13, i32 0, i32 4
  store i8 1, ptr %24, align 8
  br label %25

25:                                               ; preds = %22, %3
  %26 = load i64, ptr %6, align 8
  %27 = icmp ugt i64 %26, 0
  br i1 %27, label %28, label %77

28:                                               ; preds = %25
  %29 = load ptr, ptr %5, align 8
  %30 = getelementptr inbounds %"class.google::protobuf::strings::CheckedArrayByteSink", ptr %13, i32 0, i32 1
  %31 = load ptr, ptr %30, align 8
  %32 = getelementptr inbounds %"class.google::protobuf::strings::CheckedArrayByteSink", ptr %13, i32 0, i32 3
  %33 = load i64, ptr %32, align 8
  %34 = getelementptr inbounds i8, ptr %31, i64 %33
  %35 = icmp ne ptr %29, %34
  br i1 %35, label %36, label %77

36:                                               ; preds = %28
  br label %37

37:                                               ; preds = %61, %36
  br i1 false, label %38, label %69

38:                                               ; preds = %37
  %39 = getelementptr inbounds %"class.google::protobuf::strings::CheckedArrayByteSink", ptr %13, i32 0, i32 1
  %40 = load ptr, ptr %39, align 8
  %41 = load ptr, ptr %5, align 8
  %42 = icmp ule ptr %40, %41
  store i1 false, ptr %9, align 1
  br i1 %42, label %43, label %51

43:                                               ; preds = %38
  %44 = load ptr, ptr %5, align 8
  %45 = getelementptr inbounds %"class.google::protobuf::strings::CheckedArrayByteSink", ptr %13, i32 0, i32 1
  %46 = load ptr, ptr %45, align 8
  %47 = getelementptr inbounds %"class.google::protobuf::strings::CheckedArrayByteSink", ptr %13, i32 0, i32 2
  %48 = load i64, ptr %47, align 8
  %49 = getelementptr inbounds i8, ptr %46, i64 %48
  %50 = icmp ult ptr %44, %49
  br i1 %50, label %52, label %51

51:                                               ; preds = %43, %38
  br label %58

52:                                               ; preds = %43
  call void @_ZN6google8protobuf8internal10LogMessageC1ENS0_8LogLevelEPKci(ptr noundef nonnull align 8 dereferenceable(56) %8, i32 noundef 3, ptr noundef @.str, i32 noundef 80)
  store i1 true, ptr %9, align 1
  %53 = invoke noundef nonnull align 8 dereferenceable(56) ptr @_ZN6google8protobuf8internal10LogMessagelsEPKc(ptr noundef nonnull align 8 dereferenceable(56) %8, ptr noundef @.str.4)
          to label %54 unwind label %62

54:                                               ; preds = %52
  %55 = invoke noundef nonnull align 8 dereferenceable(56) ptr @_ZN6google8protobuf8internal10LogMessagelsEPKc(ptr noundef nonnull align 8 dereferenceable(56) %53, ptr noundef @.str.5)
          to label %56 unwind label %62

56:                                               ; preds = %54
  invoke void @_ZN6google8protobuf8internal11LogFinisheraSERNS1_10LogMessageE(ptr noundef nonnull align 1 dereferenceable(1) %12, ptr noundef nonnull align 8 dereferenceable(56) %55)
          to label %57 unwind label %62

57:                                               ; preds = %56
  br label %58

58:                                               ; preds = %57, %51
  %59 = load i1, ptr %9, align 1
  br i1 %59, label %60, label %61

60:                                               ; preds = %58
  call void @_ZN6google8protobuf8internal10LogMessageD1Ev(ptr noundef nonnull align 8 dereferenceable(56) %8) #3
  br label %61

61:                                               ; preds = %60, %58
  br label %37, !llvm.loop !7

62:                                               ; preds = %56, %54, %52
  %63 = landingpad { ptr, i32 }
          cleanup
  %64 = extractvalue { ptr, i32 } %63, 0
  store ptr %64, ptr %10, align 8
  %65 = extractvalue { ptr, i32 } %63, 1
  store i32 %65, ptr %11, align 4
  %66 = load i1, ptr %9, align 1
  br i1 %66, label %67, label %68

67:                                               ; preds = %62
  call void @_ZN6google8protobuf8internal10LogMessageD1Ev(ptr noundef nonnull align 8 dereferenceable(56) %8) #3
  br label %68

68:                                               ; preds = %67, %62
  br label %82

69:                                               ; preds = %37
  %70 = getelementptr inbounds %"class.google::protobuf::strings::CheckedArrayByteSink", ptr %13, i32 0, i32 1
  %71 = load ptr, ptr %70, align 8
  %72 = getelementptr inbounds %"class.google::protobuf::strings::CheckedArrayByteSink", ptr %13, i32 0, i32 3
  %73 = load i64, ptr %72, align 8
  %74 = getelementptr inbounds i8, ptr %71, i64 %73
  %75 = load ptr, ptr %5, align 8
  %76 = load i64, ptr %6, align 8
  call void @llvm.memcpy.p0.p0.i64(ptr align 1 %74, ptr align 1 %75, i64 %76, i1 false)
  br label %77

77:                                               ; preds = %69, %28, %25
  %78 = load i64, ptr %6, align 8
  %79 = getelementptr inbounds %"class.google::protobuf::strings::CheckedArrayByteSink", ptr %13, i32 0, i32 3
  %80 = load i64, ptr %79, align 8
  %81 = add i64 %80, %78
  store i64 %81, ptr %79, align 8
  ret void

82:                                               ; preds = %68
  %83 = load ptr, ptr %10, align 8
  %84 = load i32, ptr %11, align 4
  %85 = insertvalue { ptr, i32 } poison, ptr %83, 0
  %86 = insertvalue { ptr, i32 } %85, i32 %84, 1
  resume { ptr, i32 } %86
}