; Function Attrs: mustprogress nofree norecurse nosync nounwind willreturn memory(readwrite, inaccessiblemem: none) uwtable
define void @_ZN6google8protobuf7strings20CheckedArrayByteSink6AppendEPKcm(ptr nocapture noundef nonnull align 8 dereferenceable(33) %0, ptr noundef readonly %1, i64 noundef %2) unnamed_addr #5 align 2 personality ptr @__gxx_personality_v0 {
  %4 = getelementptr inbounds i8, ptr %0, i64 16
  %5 = load i64, ptr %4, align 8
  %6 = getelementptr inbounds i8, ptr %0, i64 24
  %7 = load i64, ptr %6, align 8
  %8 = sub i64 %5, %7
  %9 = icmp ult i64 %8, %2
  br i1 %9, label %10, label %12

10:                                               ; preds = %3
  %11 = getelementptr inbounds i8, ptr %0, i64 32
  store i8 1, ptr %11, align 8
  br label %12

12:                                               ; preds = %10, %3
  %.0 = phi i64 [ %8, %10 ], [ %2, %3 ]
  %.not = icmp eq i64 %.0, 0
  br i1 %.not, label %18, label %13

13:                                               ; preds = %12
  %14 = getelementptr inbounds i8, ptr %0, i64 8
  %15 = load ptr, ptr %14, align 8
  %16 = getelementptr inbounds i8, ptr %15, i64 %7
  %.not12 = icmp eq ptr %16, %1
  br i1 %.not12, label %18, label %17

17:                                               ; preds = %13
  tail call void @llvm.memcpy.p0.p0.i64(ptr align 1 %16, ptr align 1 %1, i64 %.0, i1 false)
  %.pre = load i64, ptr %6, align 8
  br label %18

18:                                               ; preds = %17, %13, %12
  %19 = phi i64 [ %.pre, %17 ], [ %7, %13 ], [ %7, %12 ]
  %20 = add i64 %19, %.0
  store i64 %20, ptr %6, align 8
  ret void
}